target datalayout = "e-m:e-p270:32:32-p271:32:32-p272:64:64-i64:64-i128:128-f80:128-n8:16:32:64-S128"
target triple = "x86_64-pc-linux-gnu"

%"struct.faiss::BufferList" = type { i64, %"class.std::vector", i64 }
%"class.std::vector" = type { %"struct.std::_Vector_base" }
%"struct.std::_Vector_base" = type { %"struct.std::_Vector_base<faiss::BufferList::Buffer, std::allocator<faiss::BufferList::Buffer>>::_Vector_impl" }
%"struct.std::_Vector_base<faiss::BufferList::Buffer, std::allocator<faiss::BufferList::Buffer>>::_Vector_impl" = type { %"struct.std::_Vector_base<faiss::BufferList::Buffer, std::allocator<faiss::BufferList::Buffer>>::_Vector_impl_data" }
%"struct.std::_Vector_base<faiss::BufferList::Buffer, std::allocator<faiss::BufferList::Buffer>>::_Vector_impl_data" = type { ptr, ptr, ptr }
%"struct.faiss::BufferList::Buffer" = type { ptr, ptr }

; Function Attrs: mustprogress nounwind uwtable
define linkonce_odr noundef nonnull align 8 dereferenceable(16) ptr @_ZNSt6vectorIN5faiss10BufferList6BufferESaIS2_EEixEm(ptr noundef nonnull align 8 dereferenceable(24) %0, i64 noundef %1) #1 comdat align 2 {
  %3 = alloca ptr, align 8
  %4 = alloca i64, align 8
  store ptr %0, ptr %3, align 8
  store i64 %1, ptr %4, align 8
  %5 = load ptr, ptr %3, align 8
  %6 = getelementptr inbounds %"struct.std::_Vector_base", ptr %5, i32 0, i32 0
  %7 = getelementptr inbounds %"struct.std::_Vector_base<faiss::BufferList::Buffer, std::allocator<faiss::BufferList::Buffer>>::_Vector_impl_data", ptr %6, i32 0, i32 0
  %8 = load ptr, ptr %7, align 8
  %9 = load i64, ptr %4, align 8
  %10 = getelementptr inbounds %"struct.faiss::BufferList::Buffer", ptr %8, i64 %9
  ret ptr %10
}

; Function Attrs: mustprogress nounwind uwtable
define void @_ZN5faiss10BufferList10copy_rangeEmmPlPf(ptr noundef nonnull align 8 dereferenceable(40) %0, i64 noundef %1, i64 noundef %2, ptr noundef %3, ptr noundef %4) #1 align 2 {
  %6 = alloca ptr, align 8
  %7 = alloca i64, align 8
  %8 = alloca i64, align 8
  %9 = alloca ptr, align 8
  %10 = alloca ptr, align 8
  %11 = alloca i64, align 8
  %12 = alloca i64, align 8
  %13 = alloca %"struct.faiss::BufferList::Buffer", align 8
  store ptr %0, ptr %6, align 8
  store i64 %1, ptr %7, align 8
  store i64 %2, ptr %8, align 8
  store ptr %3, ptr %9, align 8
  store ptr %4, ptr %10, align 8
  %14 = load ptr, ptr %6, align 8
  %15 = load i64, ptr %7, align 8
  %16 = getelementptr inbounds %"struct.faiss::BufferList", ptr %14, i32 0, i32 0
  %17 = load i64, ptr %16, align 8
  %18 = udiv i64 %15, %17
  store i64 %18, ptr %11, align 8
  %19 = load i64, ptr %11, align 8
  %20 = getelementptr inbounds %"struct.faiss::BufferList", ptr %14, i32 0, i32 0
  %21 = load i64, ptr %20, align 8
  %22 = mul i64 %19, %21
  %23 = load i64, ptr %7, align 8
  %24 = sub i64 %23, %22
  store i64 %24, ptr %7, align 8
  br label %25

25:                                               ; preds = %42, %5
  %26 = load i64, ptr %8, align 8
  %27 = icmp ugt i64 %26, 0
  br i1 %27, label %28, label %72

28:                                               ; preds = %25
  %29 = load i64, ptr %7, align 8
  %30 = load i64, ptr %8, align 8
  %31 = add i64 %29, %30
  %32 = getelementptr inbounds %"struct.faiss::BufferList", ptr %14, i32 0, i32 0
  %33 = load i64, ptr %32, align 8
  %34 = icmp ult i64 %31, %33
  br i1 %34, label %35, label %37

35:                                               ; preds = %28
  %36 = load i64, ptr %8, align 8
  br label %42

37:                                               ; preds = %28
  %38 = getelementptr inbounds %"struct.faiss::BufferList", ptr %14, i32 0, i32 0
  %39 = load i64, ptr %38, align 8
  %40 = load i64, ptr %7, align 8
  %41 = sub i64 %39, %40
  br label %42

42:                                               ; preds = %37, %35
  %43 = phi i64 [ %36, %35 ], [ %41, %37 ]
  store i64 %43, ptr %12, align 8
  %44 = getelementptr inbounds %"struct.faiss::BufferList", ptr %14, i32 0, i32 1
  %45 = load i64, ptr %11, align 8
  %46 = call noundef nonnull align 8 dereferenceable(16) ptr @_ZNSt6vectorIN5faiss10BufferList6BufferESaIS2_EEixEm(ptr noundef nonnull align 8 dereferenceable(24) %44, i64 noundef %45) #11
  call void @llvm.memcpy.p0.p0.i64(ptr align 8 %13, ptr align 8 %46, i64 16, i1 false)
  %47 = load ptr, ptr %9, align 8
  %48 = getelementptr inbounds %"struct.faiss::BufferList::Buffer", ptr %13, i32 0, i32 0
  %49 = load ptr, ptr %48, align 8
  %50 = load i64, ptr %7, align 8
  %51 = getelementptr inbounds i64, ptr %49, i64 %50
  %52 = load i64, ptr %12, align 8
  %53 = mul i64 %52, 8
  call void @llvm.memcpy.p0.p0.i64(ptr align 8 %47, ptr align 8 %51, i64 %53, i1 false)
  %54 = load ptr, ptr %10, align 8
  %55 = getelementptr inbounds %"struct.faiss::BufferList::Buffer", ptr %13, i32 0, i32 1
  %56 = load ptr, ptr %55, align 8
  %57 = load i64, ptr %7, align 8
  %58 = getelementptr inbounds float, ptr %56, i64 %57
  %59 = load i64, ptr %12, align 8
  %60 = mul i64 %59, 4
  call void @llvm.memcpy.p0.p0.i64(ptr align 4 %54, ptr align 4 %58, i64 %60, i1 false)
  %61 = load i64, ptr %12, align 8
  %62 = load ptr, ptr %9, align 8
  %63 = getelementptr inbounds i64, ptr %62, i64 %61
  store ptr %63, ptr %9, align 8
  %64 = load i64, ptr %12, align 8
  %65 = load ptr, ptr %10, align 8
  %66 = getelementptr inbounds float, ptr %65, i64 %64
  store ptr %66, ptr %10, align 8
  store i64 0, ptr %7, align 8
  %67 = load i64, ptr %11, align 8
  %68 = add i64 %67, 1
  store i64 %68, ptr %11, align 8
  %69 = load i64, ptr %12, align 8
  %70 = load i64, ptr %8, align 8
  %71 = sub i64 %70, %69
  store i64 %71, ptr %8, align 8
  br label %25, !llvm.loop !8

72:                                               ; preds = %25
  ret void
}