; Function Attrs: mustprogress nofree norecurse nosync nounwind memory(readwrite, inaccessiblemem: none) uwtable
define void @_ZN5faiss10BufferList10copy_rangeEmmPlPf(ptr nocapture noundef nonnull readonly align 8 dereferenceable(40) %0, i64 noundef %1, i64 noundef %2, ptr nocapture noundef writeonly %3, ptr nocapture noundef writeonly %4) local_unnamed_addr #12 align 2 {
  %.not27 = icmp eq i64 %2, 0
  br i1 %.not27, label %._crit_edge, label %.lr.ph

.lr.ph:                                           ; preds = %5
  %6 = load i64, ptr %0, align 8
  %7 = udiv i64 %1, %6
  %8 = mul i64 %7, %6
  %.recomposed = urem i64 %1, %6
  %9 = getelementptr inbounds i8, ptr %0, i64 8
  br label %10

10:                                               ; preds = %.lr.ph, %10
  %.032 = phi i64 [ %.recomposed, %.lr.ph ], [ 0, %10 ]
  %.02231 = phi i64 [ %2, %.lr.ph ], [ %25, %10 ]
  %.02330 = phi ptr [ %3, %.lr.ph ], [ %22, %10 ]
  %.02429 = phi i64 [ %7, %.lr.ph ], [ %24, %10 ]
  %.02528 = phi ptr [ %4, %.lr.ph ], [ %23, %10 ]
  %11 = add i64 %.032, %.02231
  %12 = load i64, ptr %0, align 8
  %13 = icmp ult i64 %11, %12
  %14 = sub i64 %12, %.032
  %15 = select i1 %13, i64 %.02231, i64 %14
  %16 = load ptr, ptr %9, align 8
  %17 = getelementptr inbounds %"struct.faiss::BufferList::Buffer", ptr %16, i64 %.02429
  %.sroa.0.0.copyload = load ptr, ptr %17, align 8
  %.sroa.2.0..sroa_idx = getelementptr inbounds i8, ptr %17, i64 8
  %.sroa.2.0.copyload = load ptr, ptr %.sroa.2.0..sroa_idx, align 8
  %18 = getelementptr inbounds i64, ptr %.sroa.0.0.copyload, i64 %.032
  %19 = shl i64 %15, 3
  tail call void @llvm.memcpy.p0.p0.i64(ptr align 8 %.02330, ptr align 8 %18, i64 %19, i1 false)
  %20 = getelementptr inbounds float, ptr %.sroa.2.0.copyload, i64 %.032
  %21 = shl i64 %15, 2
  tail call void @llvm.memcpy.p0.p0.i64(ptr align 4 %.02528, ptr align 4 %20, i64 %21, i1 false)
  %22 = getelementptr inbounds i64, ptr %.02330, i64 %15
  %23 = getelementptr inbounds float, ptr %.02528, i64 %15
  %24 = add i64 %.02429, 1
  %25 = sub i64 %.02231, %15
  %.not = icmp eq i64 %25, 0
  br i1 %.not, label %._crit_edge, label %10, !llvm.loop !8

._crit_edge:                                      ; preds = %10, %5
  ret void
}